; Function Attrs: mustprogress nofree norecurse nosync nounwind willreturn memory(read, inaccessiblemem: none) uwtable
define hidden ptr @_glfwGetEGLNativeWindowX11(ptr noundef readonly captures(ret: address, provenance) %0) local_unnamed_addr #2 {
  %2 = load i32, ptr getelementptr inbounds nuw (i8, ptr @_glfw, i64 133496), align 8, !tbaa !435
  %.not = icmp eq i32 %2, 0
  %3 = getelementptr inbounds nuw i8, ptr %0, i64 1248
  br i1 %.not, label %4, label %7

4:                                                ; preds = %1
  %5 = load i64, ptr %3, align 8, !tbaa !140
  %6 = inttoptr i64 %5 to ptr
  br label %7

7:                                                ; preds = %1, %4
  %.0 = phi ptr [ %6, %4 ], [ %3, %1 ]
  ret ptr %.0
}